(dp1
S'mac'
p2
ccopy_reg
_reconstructor
p3
(cjt_machine_list
mList
p4
c__builtin__
object
p5
NtRp6
(dp7
S'_mList__m_list'
p8
g3
(cjt_list
xlist
p9
g5
NtRp10
(dp11
S'_xlist__max'
p12
S'f446a57cf0013a44a68a58061d46caa1'
p13
sS'_xlist__orderKey'
p14
(lp15
S'0ba26422bbd3fe8b3a71218475638935'
p16
aS'4d4301b1ed21731adf73e5c01ecabfbb'
p17
ag13
asS'_xlist__data'
p18
(dp19
g16
g3
(cjt_machine_list
machine
p20
g5
NtRp21
(dp22
S'index'
p23
S'0ba26422bbd3fe8b3a71218475638935'
p24
sS'attr'
p25
(dp26
S'weight'
p27
I1000001
ssS'host'
p28
S'localhost'
p29
sS'address'
p30
S'127.0.0.1'
p31
sS'port'
p32
S'8802'
p33
sS'name'
p34
S'bHkXpMLU'
p35
sbsg17
g3
(g20
g5
NtRp36
(dp37
g23
S'4d4301b1ed21731adf73e5c01ecabfbb'
p38
sg25
(dp39
g27
I2
ssg28
S'localhost'
p40
sg30
g31
sg32
S'8803'
p41
sg34
S'VgMTupyf'
p42
sbsg13
g3
(g20
g5
NtRp43
(dp44
g23
S'f446a57cf0013a44a68a58061d46caa1'
p45
sg25
(dp46
g27
I0
ssg28
S'localhost'
p47
sg30
g31
sg32
S'8804'
p48
sg34
S'zcfMVwZx'
p49
sbssS'_xlist__min'
p50
g16
sbsbsS'data'
p51
g3
(g9
g5
NtRp52
(dp53
g12
S'fd3f1fa9cc36b3c47626465ff968c8e4'
p54
sg14
(lp55
S'0dd1572ffc226f67bb59d896f52cc506'
p56
aS'51907bc025f3c8d5c1c042288500dfff'
p57
aS'63a9f0ea7bb98050796b649e85481845'
p58
aS'6d65f09faf7ce84a6fc161d733f15859'
p59
aS'8fd46d0dd8c63cd056ba4480c1b6e671'
p60
aS'ae9bd07ed6ea508a30370176a9099b8f'
p61
aS'd533b315d3c0279cf2af9c061d1c0d32'
p62
ag54
asg18
(dp63
g61
g3
(g9
g5
NtRp64
(dp65
S'_xlist__name'
p66
S'ECcnOUkx'
p67
sg50
S'653445ea64875223b329a4cccc63246a'
p68
sg12
g68
sg14
(lp69
g68
asg18
(dp70
g68
g3
(cdirnode
dirnode
p71
g5
NtRp72
(dp73
S'_dirnode__type'
p74
I1
sS'_dirnode__power'
p75
I666
sS'_dirnode__p_index'
p76
S'ae9bd07ed6ea508a30370176a9099b8f;653445ea64875223b329a4cccc63246a'
p77
sS'_dirnode__dirnexts'
p78
g3
(g9
g5
NtRp79
(dp80
g14
(lp81
sg18
(dp82
sbsS'_dirnode__length'
p83
I0
sS'_dirnode__name'
p84
S'x02'
p85
sS'_dirnode__address'
p86
(lp87
g3
(g20
g5
NtRp88
(dp89
g23
S'7584d759e05b7c7b7c55667064008137'
p90
sg25
(dp91
S'weight'
p92
I3
ssg28
S'localhost'
p93
sg30
S'127.0.0.1'
p94
sg32
S'8804'
p95
sg34
S'IISXphay'
p96
sbag3
(g20
g5
NtRp97
(dp98
g23
S'bd5e0eb8b78eb16ef336b0b02fd134c1'
p99
sg25
(dp100
g92
I3
ssg28
S'localhost'
p101
sg30
g94
sg32
S'8802'
p102
sg34
S'LajvrbhC'
p103
sbag3
(g20
g5
NtRp104
(dp105
g23
S'10f553b71568a6f6f88228a2bee7fad0'
p106
sg25
(dp107
g92
I1000001
ssg28
S'localhost'
p108
sg30
g94
sg32
S'8803'
p109
sg34
S'FaJWXDKy'
p110
sbasS'_dirnode__key'
p111
S'653445ea64875223b329a4cccc63246a'
p112
sS'_dirnode__parent_name'
p113
S'/root/x/x0/x02'
p114
sS'_dirnode__childs'
p115
g3
(g9
g5
NtRp116
(dp117
g14
(lp118
sg18
(dp119
sbsbssS'_xlist__address'
p120
(lp121
g3
(g20
g5
NtRp122
(dp123
g23
S'7584d759e05b7c7b7c55667064008137'
p124
sg25
(dp125
S'weight'
p126
I2
ssg28
S'localhost'
p127
sg30
S'127.0.0.1'
p128
sg32
S'8804'
p129
sg34
S'IISXphay'
p130
sbag3
(g20
g5
NtRp131
(dp132
g23
S'bd5e0eb8b78eb16ef336b0b02fd134c1'
p133
sg25
(dp134
g126
I2
ssg28
S'localhost'
p135
sg30
g128
sg32
S'8802'
p136
sg34
S'LajvrbhC'
p137
sbag3
(g20
g5
NtRp138
(dp139
g23
S'10f553b71568a6f6f88228a2bee7fad0'
p140
sg25
(dp141
g126
I1000001
ssg28
S'localhost'
p142
sg30
g128
sg32
S'8803'
p143
sg34
S'FaJWXDKy'
p144
sbasbsg62
g3
(g9
g5
NtRp145
(dp146
g66
S'zfIlEyuj'
p147
sg50
S'e50eb7598b580311bab8f39bb8f4815b'
p148
sg12
g148
sg14
(lp149
g148
asg18
(dp150
g148
g3
(g71
g5
NtRp151
(dp152
g74
I1
sg76
S'd533b315d3c0279cf2af9c061d1c0d32;e50eb7598b580311bab8f39bb8f4815b'
p153
sg78
g3
(g9
g5
NtRp154
(dp155
g12
S'9283348f80f131928713d4fae1094e37'
p156
sg14
(lp157
S'653445ea64875223b329a4cccc63246a'
p158
ag156
asg18
(dp159
g158
g3
(cdirnode
dirnext
p160
g5
NtRp161
(dp162
S'_dirnext__max'
p163
S'653445ea64875223b329a4cccc63246a'
p164
sS'_dirnext__name'
p165
S'ECcnOUkx'
p166
sS'_dirnext__index'
p167
S'ae9bd07ed6ea508a30370176a9099b8f'
p168
sS'_dirnext__length'
p169
I0
sS'_dirnext__address'
p170
(lp171
g3
(g20
g5
NtRp172
(dp173
g23
S'7584d759e05b7c7b7c55667064008137'
p174
sg25
(dp175
S'weight'
p176
I4
ssg28
S'localhost'
p177
sg30
S'127.0.0.1'
p178
sg32
S'8804'
p179
sg34
S'IISXphay'
p180
sbag3
(g20
g5
NtRp181
(dp182
g23
S'bd5e0eb8b78eb16ef336b0b02fd134c1'
p183
sg25
(dp184
g176
I4
ssg28
S'localhost'
p185
sg30
g178
sg32
S'8802'
p186
sg34
S'LajvrbhC'
p187
sbag3
(g20
g5
NtRp188
(dp189
g23
S'10f553b71568a6f6f88228a2bee7fad0'
p190
sg25
(dp191
g176
I1000001
ssg28
S'localhost'
p192
sg30
g178
sg32
S'8803'
p193
sg34
S'FaJWXDKy'
p194
sbasS'_dirnext__min'
p195
S'653445ea64875223b329a4cccc63246a'
p196
sbsg156
g3
(g160
g5
NtRp197
(dp198
g163
I0
sg165
S'gbtFfZAc'
p199
sg167
S'6d65f09faf7ce84a6fc161d733f15859'
p200
sg169
I0
sg170
(lp201
g188
ag172
ag181
asg195
I0
sbssg50
g158
sbsg83
I0
sg84
S'x0'
p202
sg86
(lp203
g3
(g20
g5
NtRp204
(dp205
g23
S'10f553b71568a6f6f88228a2bee7fad0'
p206
sg25
(dp207
S'weight'
p208
I1000001
ssg28
S'localhost'
p209
sg30
S'127.0.0.1'
p210
sg32
S'8803'
p211
sg34
S'FaJWXDKy'
p212
sbag3
(g20
g5
NtRp213
(dp214
g23
S'7584d759e05b7c7b7c55667064008137'
p215
sg25
(dp216
g208
I7
ssg28
S'localhost'
p217
sg30
g210
sg32
S'8804'
p218
sg34
S'IISXphay'
p219
sbag3
(g20
g5
NtRp220
(dp221
g23
S'bd5e0eb8b78eb16ef336b0b02fd134c1'
p222
sg25
(dp223
g208
I7
ssg28
S'localhost'
p224
sg30
g210
sg32
S'8802'
p225
sg34
S'LajvrbhC'
p226
sbasg75
I666
sg111
S'e50eb7598b580311bab8f39bb8f4815b'
p227
sg113
S'/root/x/x0'
p228
sg115
g3
(g9
g5
NtRp229
(dp230
g12
S'419ef067b753de632e1c66f26d0777de'
p231
sg14
(lp232
g231
asg18
(dp233
g231
g3
(g71
g5
NtRp234
(dp235
g74
I1
sg76
S'63a9f0ea7bb98050796b649e85481845;9dd4e461268c8034f5c8564e155c67a6;e50eb7598b580311bab8f39bb8f4815b;419ef067b753de632e1c66f26d0777de'
p236
sg78
g3
(g9
g5
NtRp237
(dp238
g14
(lp239
sg18
(dp240
sbsg83
I0
sg84
S'x01'
p241
sg86
(lp242
g3
(g20
g5
NtRp243
(dp244
g23
S'd41d8cd98f00b204e9800998ecf8427e'
p245
sg25
S''
sg28
S'localhost'
p246
sg30
g178
sg32
I8803
sg34
S''
sbag172
ag181
asg75
I666
sg111
S'419ef067b753de632e1c66f26d0777de'
p247
sg113
S'/root/x/x0/x01'
p248
sg115
g3
(g9
g5
NtRp249
(dp250
g14
(lp251
sg18
(dp252
sbsbssg50
g231
sbsbssg120
(lp253
g3
(g20
g5
NtRp254
(dp255
g23
S'10f553b71568a6f6f88228a2bee7fad0'
p256
sg25
(dp257
S'weight'
p258
I1000001
ssg28
S'localhost'
p259
sg30
S'127.0.0.1'
p260
sg32
S'8803'
p261
sg34
S'FaJWXDKy'
p262
sbag3
(g20
g5
NtRp263
(dp264
g23
S'7584d759e05b7c7b7c55667064008137'
p265
sg25
(dp266
g258
I7
ssg28
S'localhost'
p267
sg30
g260
sg32
S'8804'
p268
sg34
S'IISXphay'
p269
sbag3
(g20
g5
NtRp270
(dp271
g23
S'bd5e0eb8b78eb16ef336b0b02fd134c1'
p272
sg25
(dp273
g258
I7
ssg28
S'localhost'
p274
sg30
g260
sg32
S'8802'
p275
sg34
S'LajvrbhC'
p276
sbasbsg60
g3
(g9
g5
NtRp277
(dp278
g66
S'nEkxDHBv'
p279
sg50
S'6d865d85813b1261953b3e79cdb04716'
p280
sg12
g280
sg14
(lp281
g280
asg18
(dp282
g280
g3
(g71
g5
NtRp283
(dp284
g74
I1
sg76
S'8fd46d0dd8c63cd056ba4480c1b6e671;6d865d85813b1261953b3e79cdb04716'
p285
sg78
g3
(g9
g5
NtRp286
(dp287
g14
(lp288
sg18
(dp289
sbsg83
I0
sg84
S'x11'
p290
sg86
(lp291
g3
(g20
g5
NtRp292
(dp293
g23
S'10f553b71568a6f6f88228a2bee7fad0'
p294
sg25
(dp295
S'weight'
p296
I1000001
ssg28
S'localhost'
p297
sg30
S'127.0.0.1'
p298
sg32
S'8803'
p299
sg34
S'FaJWXDKy'
p300
sbag3
(g20
g5
NtRp301
(dp302
g23
S'7584d759e05b7c7b7c55667064008137'
p303
sg25
(dp304
g296
I6
ssg28
S'localhost'
p305
sg30
g298
sg32
S'8804'
p306
sg34
S'IISXphay'
p307
sbag3
(g20
g5
NtRp308
(dp309
g23
S'bd5e0eb8b78eb16ef336b0b02fd134c1'
p310
sg25
(dp311
g296
I6
ssg28
S'localhost'
p312
sg30
g298
sg32
S'8802'
p313
sg34
S'LajvrbhC'
p314
sbasg75
I666
sg111
S'6d865d85813b1261953b3e79cdb04716'
p315
sg113
S'/root/x/x1/x11'
p316
sg115
g3
(g9
g5
NtRp317
(dp318
g14
(lp319
sg18
(dp320
sbsbssg120
(lp321
g3
(g20
g5
NtRp322
(dp323
g23
S'10f553b71568a6f6f88228a2bee7fad0'
p324
sg25
(dp325
S'weight'
p326
I1000001
ssg28
S'localhost'
p327
sg30
S'127.0.0.1'
p328
sg32
S'8803'
p329
sg34
S'FaJWXDKy'
p330
sbag3
(g20
g5
NtRp331
(dp332
g23
S'7584d759e05b7c7b7c55667064008137'
p333
sg25
(dp334
g326
I6
ssg28
S'localhost'
p335
sg30
g328
sg32
S'8804'
p336
sg34
S'IISXphay'
p337
sbag3
(g20
g5
NtRp338
(dp339
g23
S'bd5e0eb8b78eb16ef336b0b02fd134c1'
p340
sg25
(dp341
g326
I6
ssg28
S'localhost'
p342
sg30
g328
sg32
S'8802'
p343
sg34
S'LajvrbhC'
p344
sbasbsg59
g3
(g9
g5
NtRp345
(dp346
g66
S'gbtFfZAc'
p347
sg50
S'9283348f80f131928713d4fae1094e37'
p348
sg12
g348
sg14
(lp349
g348
asg18
(dp350
g348
g3
(g71
g5
NtRp351
(dp352
g74
I1
sg76
S'6d65f09faf7ce84a6fc161d733f15859;9283348f80f131928713d4fae1094e37'
p353
sg78
g3
(g9
g5
NtRp354
(dp355
g14
(lp356
sg18
(dp357
sbsg83
I0
sg84
S'x00'
p358
sg86
(lp359
g3
(g20
g5
NtRp360
(dp361
g23
S'10f553b71568a6f6f88228a2bee7fad0'
p362
sg25
(dp363
S'weight'
p364
I1000001
ssg28
S'localhost'
p365
sg30
S'127.0.0.1'
p366
sg32
S'8803'
p367
sg34
S'FaJWXDKy'
p368
sbag3
(g20
g5
NtRp369
(dp370
g23
S'7584d759e05b7c7b7c55667064008137'
p371
sg25
(dp372
g364
I3
ssg28
S'localhost'
p373
sg30
g366
sg32
S'8804'
p374
sg34
S'IISXphay'
p375
sbag3
(g20
g5
NtRp376
(dp377
g23
S'bd5e0eb8b78eb16ef336b0b02fd134c1'
p378
sg25
(dp379
g364
I3
ssg28
S'localhost'
p380
sg30
g366
sg32
S'8802'
p381
sg34
S'LajvrbhC'
p382
sbasg75
I666
sg111
S'9283348f80f131928713d4fae1094e37'
p383
sg113
S'/root/x/x0/x00'
p384
sg115
g3
(g9
g5
NtRp385
(dp386
g14
(lp387
sg18
(dp388
sbsbssg120
(lp389
g3
(g20
g5
NtRp390
(dp391
g23
S'10f553b71568a6f6f88228a2bee7fad0'
p392
sg25
(dp393
S'weight'
p394
I1000001
ssg28
S'localhost'
p395
sg30
S'127.0.0.1'
p396
sg32
S'8803'
p397
sg34
S'FaJWXDKy'
p398
sbag3
(g20
g5
NtRp399
(dp400
g23
S'7584d759e05b7c7b7c55667064008137'
p401
sg25
(dp402
g394
I3
ssg28
S'localhost'
p403
sg30
g396
sg32
S'8804'
p404
sg34
S'IISXphay'
p405
sbag3
(g20
g5
NtRp406
(dp407
g23
S'bd5e0eb8b78eb16ef336b0b02fd134c1'
p408
sg25
(dp409
g394
I3
ssg28
S'localhost'
p410
sg30
g396
sg32
S'8802'
p411
sg34
S'LajvrbhC'
p412
sbasbsg54
g3
(g9
g5
NtRp413
(dp414
g66
S'NSThPGxD'
p415
sg50
S'8e683187a00e5d462a4aeee69e9d3d9c'
p416
sg12
g416
sg14
(lp417
g416
asg18
(dp418
g416
g3
(g71
g5
NtRp419
(dp420
g74
I1
sg75
I666
sg76
S'fd3f1fa9cc36b3c47626465ff968c8e4;8e683187a00e5d462a4aeee69e9d3d9c'
p421
sg78
g3
(g9
g5
NtRp422
(dp423
g12
S'd3d9513f07272498393846d8cc432e2c'
p424
sg14
(lp425
S'bc4fb7bb2ad25262594e26b2e6df1526'
p426
ag424
asg18
(dp427
g426
g3
(g160
g5
NtRp428
(dp429
g163
S'bc4fb7bb2ad25262594e26b2e6df1526'
p430
sg165
S'koqYlQSj'
p431
sg167
S'ba84e038a627a794d178f0e3f3de134a'
p432
sg169
I0
sg170
(lp433
g21
ag36
ag21
asg195
S'bc4fb7bb2ad25262594e26b2e6df1526'
p434
sbsg424
g3
(g160
g5
NtRp435
(dp436
g163
I0
sg165
S'azdpCyXk'
p437
sg167
S'f0a055efac4a93830b15a6302e57cb62'
p438
sg169
I0
sg170
(lp439
g21
ag36
ag21
asg195
I0
sbssg50
g426
sbsg83
I0
sg84
S'x2'
p440
sg86
(lp441
g3
(g20
g5
NtRp442
(dp443
g23
S'7584d759e05b7c7b7c55667064008137'
p444
sg25
(dp445
S'weight'
p446
I7
ssg28
S'localhost'
p447
sg30
S'127.0.0.1'
p448
sg32
S'8804'
p449
sg34
S'IISXphay'
p450
sbag3
(g20
g5
NtRp451
(dp452
g23
S'bd5e0eb8b78eb16ef336b0b02fd134c1'
p453
sg25
(dp454
g446
I7
ssg28
S'localhost'
p455
sg30
g448
sg32
S'8802'
p456
sg34
S'LajvrbhC'
p457
sbag3
(g20
g5
NtRp458
(dp459
g23
S'10f553b71568a6f6f88228a2bee7fad0'
p460
sg25
(dp461
g446
I1000001
ssg28
S'localhost'
p462
sg30
g448
sg32
S'8803'
p463
sg34
S'FaJWXDKy'
p464
sbasg111
S'8e683187a00e5d462a4aeee69e9d3d9c'
p465
sg113
S'/root/x/x2'
p466
sg115
g3
(g9
g5
NtRp467
(dp468
g12
S'53502b874beebc31b83e1ac6e0cc817d'
p469
sg14
(lp470
g469
asg18
(dp471
g469
g3
(g71
g5
NtRp472
(dp473
g74
I1
sg76
S'fd3f1fa9cc36b3c47626465ff968c8e4;8e683187a00e5d462a4aeee69e9d3d9c;53502b874beebc31b83e1ac6e0cc817d'
p474
sg111
S'53502b874beebc31b83e1ac6e0cc817d'
p475
sg78
g3
(g9
g5
NtRp476
(dp477
g14
(lp478
sg18
(dp479
sbsg83
I0
sg84
S'x20'
p480
sg86
(lp481
g442
ag451
ag458
asg75
I666
sg113
S'/root/x/x2/x20'
p482
sg115
g3
(g9
g5
NtRp483
(dp484
g14
(lp485
sg18
(dp486
sbsbssg50
g469
sbsbssg120
(lp487
g3
(g20
g5
NtRp488
(dp489
g23
S'7584d759e05b7c7b7c55667064008137'
p490
sg25
(dp491
S'weight'
p492
I4
ssg28
S'localhost'
p493
sg30
S'127.0.0.1'
p494
sg32
S'8804'
p495
sg34
S'IISXphay'
p496
sbag3
(g20
g5
NtRp497
(dp498
g23
S'bd5e0eb8b78eb16ef336b0b02fd134c1'
p499
sg25
(dp500
g492
I4
ssg28
S'localhost'
p501
sg30
g494
sg32
S'8802'
p502
sg34
S'LajvrbhC'
p503
sbag3
(g20
g5
NtRp504
(dp505
g23
S'10f553b71568a6f6f88228a2bee7fad0'
p506
sg25
(dp507
g492
I1000001
ssg28
S'localhost'
p508
sg30
g494
sg32
S'8803'
p509
sg34
S'FaJWXDKy'
p510
sbasbsg56
g3
(g9
g5
NtRp511
(dp512
g66
S'amJBtjQI'
p513
sg50
S'2040a28d572e0889b2b34e9c66814f57'
p514
sg12
g514
sg14
(lp515
g514
asg18
(dp516
g514
g3
(g71
g5
NtRp517
(dp518
g74
I1
sg75
I666
sg76
S'0dd1572ffc226f67bb59d896f52cc506;2040a28d572e0889b2b34e9c66814f57'
p519
sg78
g3
(g9
g5
NtRp520
(dp521
g14
(lp522
sg18
(dp523
sbsg83
I0
sg84
S'x10'
p524
sg86
(lp525
g3
(g20
g5
NtRp526
(dp527
g23
S'7584d759e05b7c7b7c55667064008137'
p528
sg25
(dp529
S'weight'
p530
I6
ssg28
S'localhost'
p531
sg30
S'127.0.0.1'
p532
sg32
S'8804'
p533
sg34
S'IISXphay'
p534
sbag3
(g20
g5
NtRp535
(dp536
g23
S'bd5e0eb8b78eb16ef336b0b02fd134c1'
p537
sg25
(dp538
g530
I6
ssg28
S'localhost'
p539
sg30
g532
sg32
S'8802'
p540
sg34
S'LajvrbhC'
p541
sbag3
(g20
g5
NtRp542
(dp543
g23
S'10f553b71568a6f6f88228a2bee7fad0'
p544
sg25
(dp545
g530
I1000001
ssg28
S'localhost'
p546
sg30
g532
sg32
S'8803'
p547
sg34
S'FaJWXDKy'
p548
sbasg111
S'2040a28d572e0889b2b34e9c66814f57'
p549
sg113
S'/root/x/x1/x10'
p550
sg115
g3
(g9
g5
NtRp551
(dp552
g14
(lp553
sg18
(dp554
sbsbssg120
(lp555
g3
(g20
g5
NtRp556
(dp557
g23
S'7584d759e05b7c7b7c55667064008137'
p558
sg25
(dp559
S'weight'
p560
I5
ssg28
S'localhost'
p561
sg30
S'127.0.0.1'
p562
sg32
S'8804'
p563
sg34
S'IISXphay'
p564
sbag3
(g20
g5
NtRp565
(dp566
g23
S'bd5e0eb8b78eb16ef336b0b02fd134c1'
p567
sg25
(dp568
g560
I5
ssg28
S'localhost'
p569
sg30
g562
sg32
S'8802'
p570
sg34
S'LajvrbhC'
p571
sbag3
(g20
g5
NtRp572
(dp573
g23
S'10f553b71568a6f6f88228a2bee7fad0'
p574
sg25
(dp575
g560
I1000001
ssg28
S'localhost'
p576
sg30
g562
sg32
S'8803'
p577
sg34
S'FaJWXDKy'
p578
sbasbsg57
g3
(g9
g5
NtRp579
(dp580
g66
S'qrduMbsI'
p581
sg50
S'db231ec39f2ce4d5ad1de0abfc8970d9'
p582
sg12
g582
sg14
(lp583
g582
asg18
(dp584
g582
g3
(g71
g5
NtRp585
(dp586
g74
I3
sS'_dirnode__file'
p587
g3
(cdirnode
jt_file
p588
g5
NtRp589
(dp590
S'_jt_file__key'
p591
S'3ce40b35510d57ec51394d4cd6b56f03'
p592
sS'_jt_file__address'
p593
(lp594
g3
(g20
g5
NtRp595
(dp596
g23
S'7584d759e05b7c7b7c55667064008137'
p597
sg25
(dp598
S'weight'
p599
I10
ssg28
S'localhost'
p600
sg30
S'127.0.0.1'
p601
sg32
S'8804'
p602
sg34
S'IISXphay'
p603
sbag3
(g20
g5
NtRp604
(dp605
g23
S'bd5e0eb8b78eb16ef336b0b02fd134c1'
p606
sg25
(dp607
g599
I9
ssg28
S'localhost'
p608
sg30
g601
sg32
S'8802'
p609
sg34
S'LajvrbhC'
p610
sbag595
asS'_jt_file__full_path'
p611
S'/root/Records'
p612
sS'_jt_file__name'
p613
S'Records'
p614
sbsg76
S'51907bc025f3c8d5c1c042288500dfff;db231ec39f2ce4d5ad1de0abfc8970d9'
p615
sg78
g3
(g9
g5
NtRp616
(dp617
g14
(lp618
sg18
(dp619
sbsg83
I0
sg84
g614
sg86
(lp620
g604
ag595
ag3
(g20
g5
NtRp621
(dp622
g23
S'10f553b71568a6f6f88228a2bee7fad0'
p623
sg25
(dp624
g599
I1000001
ssg28
S'localhost'
p625
sg30
g601
sg32
S'8803'
p626
sg34
S'FaJWXDKy'
p627
sbasg75
I666
sg111
S'db231ec39f2ce4d5ad1de0abfc8970d9'
p628
sg113
S'/root/Records'
p629
sg115
g3
(g9
g5
NtRp630
(dp631
g14
(lp632
sg18
(dp633
sbsbssg120
(lp634
g3
(g20
g5
NtRp635
(dp636
g23
S'bd5e0eb8b78eb16ef336b0b02fd134c1'
p637
sg25
(dp638
S'weight'
p639
I9
ssg28
S'localhost'
p640
sg30
S'127.0.0.1'
p641
sg32
S'8802'
p642
sg34
S'LajvrbhC'
p643
sbag3
(g20
g5
NtRp644
(dp645
g23
S'7584d759e05b7c7b7c55667064008137'
p646
sg25
(dp647
g639
I10
ssg28
S'localhost'
p648
sg30
g641
sg32
S'8804'
p649
sg34
S'IISXphay'
p650
sbag3
(g20
g5
NtRp651
(dp652
g23
S'10f553b71568a6f6f88228a2bee7fad0'
p653
sg25
(dp654
g639
I1000001
ssg28
S'localhost'
p655
sg30
g641
sg32
S'8803'
p656
sg34
S'FaJWXDKy'
p657
sbasbsg58
g3
(g71
g5
NtRp658
(dp659
g74
I2
sg75
I666
sg76
S'63a9f0ea7bb98050796b649e85481845'
p660
sg78
g3
(g9
g5
NtRp661
(dp662
g12
S'db231ec39f2ce4d5ad1de0abfc8970d9'
p663
sg14
(lp664
g663
asg18
(dp665
g663
g3
(g160
g5
NtRp666
(dp667
g163
S'db231ec39f2ce4d5ad1de0abfc8970d9'
p668
sg165
S'qrduMbsI'
p669
sg167
S'51907bc025f3c8d5c1c042288500dfff'
p670
sg169
I0
sg170
(lp671
g3
(g20
g5
NtRp672
(dp673
g23
S'bd5e0eb8b78eb16ef336b0b02fd134c1'
p674
sg25
(dp675
S'weight'
p676
I9
ssg28
S'localhost'
p677
sg30
S'127.0.0.1'
p678
sg32
S'8802'
p679
sg34
S'LajvrbhC'
p680
sbag3
(g20
g5
NtRp681
(dp682
g23
S'7584d759e05b7c7b7c55667064008137'
p683
sg25
(dp684
g676
I10
ssg28
S'localhost'
p685
sg30
g678
sg32
S'8804'
p686
sg34
S'IISXphay'
p687
sbag3
(g20
g5
NtRp688
(dp689
g23
S'10f553b71568a6f6f88228a2bee7fad0'
p690
sg25
(dp691
g676
I1000001
ssg28
S'localhost'
p692
sg30
g678
sg32
S'8803'
p693
sg34
S'FaJWXDKy'
p694
sbasg195
g668
sbssg50
g663
sbsg83
I0
sg84
S'root'
p695
sg86
(lp696
g3
(g20
g5
NtRp697
(dp698
g23
S'd41d8cd98f00b204e9800998ecf8427e'
p699
sg25
S''
sg28
S'localhost'
p700
sg30
g678
sg32
I8803
sg34
S''
sbag681
ag672
asg111
g660
sg113
S'/root'
p701
sg115
g3
(g9
g5
NtRp702
(dp703
g12
S'9dd4e461268c8034f5c8564e155c67a6'
p704
sg14
(lp705
g704
asg18
(dp706
g704
g3
(g71
g5
NtRp707
(dp708
g74
I1
sg75
I666
sg76
S'63a9f0ea7bb98050796b649e85481845;9dd4e461268c8034f5c8564e155c67a6'
p709
sg78
g3
(g9
g5
NtRp710
(dp711
g12
S'e50eb7598b580311bab8f39bb8f4815b'
p712
sg14
(lp713
S'8e683187a00e5d462a4aeee69e9d3d9c'
p714
ag712
asg18
(dp715
g712
g3
(g160
g5
NtRp716
(dp717
g163
I0
sg165
S'zfIlEyuj'
p718
sg167
S'd533b315d3c0279cf2af9c061d1c0d32'
p719
sg169
I0
sg170
(lp720
g688
ag681
ag672
asg195
I0
sbsg714
g3
(g160
g5
NtRp721
(dp722
g163
S'8e683187a00e5d462a4aeee69e9d3d9c'
p723
sg165
S'NSThPGxD'
p724
sg167
S'fd3f1fa9cc36b3c47626465ff968c8e4'
p725
sg169
I0
sg170
(lp726
g681
ag672
ag688
asg195
S'8e683187a00e5d462a4aeee69e9d3d9c'
p727
sbssg50
g714
sbsg83
I0
sg84
S'x'
sg86
(lp728
g697
ag681
ag672
asg111
S'9dd4e461268c8034f5c8564e155c67a6'
p729
sg113
S'/root/x'
p730
sg115
g3
(g9
g5
NtRp731
(dp732
g12
S'6dbf9ac2da09ee1d3debf5a51873ec6d'
p733
sg14
(lp734
g733
asg18
(dp735
g733
g3
(g71
g5
NtRp736
(dp737
g74
I1
sg75
I666
sg76
S'63a9f0ea7bb98050796b649e85481845;9dd4e461268c8034f5c8564e155c67a6;6dbf9ac2da09ee1d3debf5a51873ec6d'
p738
sg78
g3
(g9
g5
NtRp739
(dp740
g12
S'6d865d85813b1261953b3e79cdb04716'
p741
sg14
(lp742
S'2040a28d572e0889b2b34e9c66814f57'
p743
ag741
asg18
(dp744
g743
g3
(g160
g5
NtRp745
(dp746
g163
S'2040a28d572e0889b2b34e9c66814f57'
p747
sg165
S'amJBtjQI'
p748
sg167
S'0dd1572ffc226f67bb59d896f52cc506'
p749
sg169
I0
sg170
(lp750
g681
ag672
ag688
asg195
S'2040a28d572e0889b2b34e9c66814f57'
p751
sbsg741
g3
(g160
g5
NtRp752
(dp753
g163
I0
sg165
S'nEkxDHBv'
p754
sg167
S'8fd46d0dd8c63cd056ba4480c1b6e671'
p755
sg169
I0
sg170
(lp756
g688
ag681
ag672
asg195
I0
sbssg50
g743
sbsg83
I0
sg84
S'x1'
p757
sg86
(lp758
g697
ag681
ag672
asg111
S'6dbf9ac2da09ee1d3debf5a51873ec6d'
p759
sg113
S'/root/x/x1'
p760
sg115
g3
(g9
g5
NtRp761
(dp762
g12
S'137b8dad9acade63b507e67878d3b94b'
p763
sg14
(lp764
g763
asg18
(dp765
g763
g3
(g71
g5
NtRp766
(dp767
g74
I1
sg75
I666
sg76
S'63a9f0ea7bb98050796b649e85481845;9dd4e461268c8034f5c8564e155c67a6;6dbf9ac2da09ee1d3debf5a51873ec6d;137b8dad9acade63b507e67878d3b94b'
p768
sg78
g3
(g9
g5
NtRp769
(dp770
g14
(lp771
sg18
(dp772
sbsg83
I0
sg84
S'x12'
p773
sg86
(lp774
g697
ag681
ag672
asg111
S'137b8dad9acade63b507e67878d3b94b'
p775
sg113
S'/root/x/x1/x12'
p776
sg115
g3
(g9
g5
NtRp777
(dp778
g14
(lp779
sg18
(dp780
sbsbssg50
g763
sbsbssg50
g733
sbsbssg50
g704
sbsbssg50
g56
sbs.