(dp1
S'mac'
p2
ccopy_reg
_reconstructor
p3
(cjt_machine_list
mList
p4
c__builtin__
object
p5
NtRp6
(dp7
S'_mList__m_list'
p8
g3
(cjt_list
xlist
p9
g5
NtRp10
(dp11
S'_xlist__max'
p12
S'd86eb7f3b0a9392f6ea3045b5d8455f7'
p13
sS'_xlist__orderKey'
p14
(lp15
S'14d4bbd015f79e524d55e071557abbbd'
p16
aS'9564a53cb2530e2527bb55fc17ee3590'
p17
aS'96bd6e4877eb5ff67b81e00aecc478f9'
p18
aS'af3f7c4c8385e5112504da6426dd8215'
p19
ag13
asS'_xlist__data'
p20
(dp21
g19
g3
(cjt_machine_list
machine
p22
g5
NtRp23
(dp24
S'index'
p25
S'af3f7c4c8385e5112504da6426dd8215'
p26
sS'attr'
p27
(dp28
S'weight'
p29
I0
ssS'host'
p30
S'localhost'
p31
sS'address'
p32
S'127.0.0.1'
p33
sS'port'
p34
S'8806'
p35
sS'name'
p36
S'acFhwQTh'
p37
sbsg13
g3
(g22
g5
NtRp38
(dp39
g25
S'd86eb7f3b0a9392f6ea3045b5d8455f7'
p40
sg27
(dp41
g29
I0
ssg30
S'localhost'
p42
sg32
g33
sg34
S'8802'
p43
sg36
S'rcoDmxNt'
p44
sbsg17
g3
(g22
g5
NtRp45
(dp46
g25
S'9564a53cb2530e2527bb55fc17ee3590'
p47
sg27
(dp48
g29
I0
ssg30
S'localhost'
p49
sg32
g33
sg34
S'8803'
p50
sg36
S'JKjXOAHs'
p51
sbsg16
g3
(g22
g5
NtRp52
(dp53
g25
S'14d4bbd015f79e524d55e071557abbbd'
p54
sg27
(dp55
g29
I0
ssg30
S'localhost'
p56
sg32
g33
sg34
S'8805'
p57
sg36
S'OCrzHnMQ'
p58
sbsg18
g3
(g22
g5
NtRp59
(dp60
g25
S'96bd6e4877eb5ff67b81e00aecc478f9'
p61
sg27
(dp62
g29
I0
ssg30
S'localhost'
p63
sg32
g33
sg34
S'8804'
p64
sg36
S'gjWVxLgN'
p65
sbssS'_xlist__min'
p66
g16
sbsbsS'data'
p67
g3
(g9
g5
NtRp68
(dp69
g12
S'63a9f0ea7bb98050796b649e85481845'
p70
sg14
(lp71
S'03d4cf7b5c559dc19d53f952efc0bed6'
p72
aS'266e12579d9ddfce699b431b0ad401c4'
p73
ag70
asg20
(dp74
g73
g3
(g9
g5
NtRp75
(dp76
S'_xlist__name'
p77
S'prdOokMF'
p78
sg66
S'c983d071bd4bda32ff24c2234d4fc9a4'
p79
sg12
g79
sg14
(lp80
g79
asg20
(dp81
g79
g3
(cdirnode
dirnode
p82
g5
NtRp83
(dp84
S'_dirnode__type'
p85
I1
sS'_dirnode__p_index'
p86
S'266e12579d9ddfce699b431b0ad401c4;c983d071bd4bda32ff24c2234d4fc9a4'
p87
sS'_dirnode__dirnexts'
p88
g3
(g9
g5
NtRp89
(dp90
g14
(lp91
sg20
(dp92
sbsS'_dirnode__length'
p93
I0
sS'_dirnode__name'
p94
S'pj'
p95
sS'_dirnode__address'
p96
(lp97
g3
(g22
g5
NtRp98
(dp99
g25
S'df4bcbf1fa783e32c9444be4e581ca19'
p100
sg27
(dp101
S'weight'
p102
I1
ssg30
S'localhost'
p103
sg32
S'127.0.0.1'
p104
sg34
S'8803'
p105
sg36
S'vUDkslVb'
p106
sbag3
(g22
g5
NtRp107
(dp108
g25
S'e568dce6ea7707a817d71a2cdd9ebbde'
p109
sg27
(dp110
g102
I1
ssg30
S'localhost'
p111
sg32
g104
sg34
S'8804'
p112
sg36
S'wkYgcpVK'
p113
sbag3
(g22
g5
NtRp114
(dp115
g25
S'62c08d6a083a9c635beb3d4bda981d0e'
p116
sg27
(dp117
g102
I2
ssg30
S'localhost'
p118
sg32
g104
sg34
S'8806'
p119
sg36
S'PjMPbkSE'
p120
sbasS'_dirnode__power'
p121
I666
sS'_dirnode__key'
p122
S'c983d071bd4bda32ff24c2234d4fc9a4'
p123
sS'_dirnode__parent_name'
p124
S'/root/dirtest/home'
p125
sS'_dirnode__childs'
p126
g3
(g9
g5
NtRp127
(dp128
g14
(lp129
sg20
(dp130
sbsbssS'_xlist__address'
p131
(lp132
g3
(g22
g5
NtRp133
(dp134
g25
S'df4bcbf1fa783e32c9444be4e581ca19'
p135
sg27
(dp136
S'weight'
p137
I1
ssg30
S'localhost'
p138
sg32
S'127.0.0.1'
p139
sg34
S'8803'
p140
sg36
S'vUDkslVb'
p141
sbag3
(g22
g5
NtRp142
(dp143
g25
S'e568dce6ea7707a817d71a2cdd9ebbde'
p144
sg27
(dp145
g137
I1
ssg30
S'localhost'
p146
sg32
g139
sg34
S'8804'
p147
sg36
S'wkYgcpVK'
p148
sbag3
(g22
g5
NtRp149
(dp150
g25
S'62c08d6a083a9c635beb3d4bda981d0e'
p151
sg27
(dp152
g137
I2
ssg30
S'localhost'
p153
sg32
g139
sg34
S'8806'
p154
sg36
S'PjMPbkSE'
p155
sbasbsg72
g3
(g9
g5
NtRp156
(dp157
g77
S'gkuGdUTX'
p158
sg66
S'a1226530c017fee8ef7d2cbb534bbc22'
p159
sg12
S'f6c4753c0f50798e4a92e7f85acc1d80'
p160
sg14
(lp161
g159
ag160
asg20
(dp162
g160
g3
(g82
g5
NtRp163
(dp164
g85
I1
sg86
S'03d4cf7b5c559dc19d53f952efc0bed6;f6c4753c0f50798e4a92e7f85acc1d80'
p165
sg88
g3
(g9
g5
NtRp166
(dp167
g14
(lp168
sg20
(dp169
sbsg93
I0
sg94
S'lenove'
p170
sg96
(lp171
g3
(g22
g5
NtRp172
(dp173
g25
S'502cf6f9559576741e6b0ac6166335e3'
p174
sg27
(dp175
S'weight'
p176
I1
ssg30
S'localhost'
p177
sg32
S'127.0.0.1'
p178
sg34
S'8803'
p179
sg36
S'xmHFndZe'
p180
sbag3
(g22
g5
NtRp181
(dp182
g25
S'5877add6f705d701ea303b6c0d41c03d'
p183
sg27
(dp184
g176
I1
ssg30
S'localhost'
p185
sg32
g178
sg34
S'8805'
p186
sg36
S'WIXYfGxr'
p187
sbag3
(g22
g5
NtRp188
(dp189
g25
S'b483f4d626e5d4112a861115b6a1b45b'
p190
sg27
(dp191
g176
I1
ssg30
S'localhost'
p192
sg32
g178
sg34
S'8806'
p193
sg36
S'pSyFEenY'
p194
sbasg121
I666
sg122
S'f6c4753c0f50798e4a92e7f85acc1d80'
p195
sg124
S'/root/dirtest/asura'
p196
sg126
g3
(g9
g5
NtRp197
(dp198
g14
(lp199
sg20
(dp200
sbsbsg159
g3
(g82
g5
NtRp201
(dp202
g85
I1
sg86
S'03d4cf7b5c559dc19d53f952efc0bed6;a1226530c017fee8ef7d2cbb534bbc22'
p203
sg88
g3
(g9
g5
NtRp204
(dp205
g14
(lp206
sg20
(dp207
sbsg93
I0
sg94
S'zti'
p208
sg96
(lp209
g3
(g22
g5
NtRp210
(dp211
g25
S'502cf6f9559576741e6b0ac6166335e3'
p212
sg27
(dp213
S'weight'
p214
I1
ssg30
S'localhost'
p215
sg32
S'127.0.0.1'
p216
sg34
S'8803'
p217
sg36
S'xmHFndZe'
p218
sbag3
(g22
g5
NtRp219
(dp220
g25
S'5877add6f705d701ea303b6c0d41c03d'
p221
sg27
(dp222
g214
I1
ssg30
S'localhost'
p223
sg32
g216
sg34
S'8805'
p224
sg36
S'WIXYfGxr'
p225
sbag3
(g22
g5
NtRp226
(dp227
g25
S'b483f4d626e5d4112a861115b6a1b45b'
p228
sg27
(dp229
g214
I1
ssg30
S'localhost'
p230
sg32
g216
sg34
S'8806'
p231
sg36
S'pSyFEenY'
p232
sbasg121
I666
sg122
S'a1226530c017fee8ef7d2cbb534bbc22'
p233
sg124
S'/root/dirtest/asura'
p234
sg126
g3
(g9
g5
NtRp235
(dp236
g14
(lp237
sg20
(dp238
sbsbssg131
(lp239
g3
(g22
g5
NtRp240
(dp241
g25
S'502cf6f9559576741e6b0ac6166335e3'
p242
sg27
(dp243
S'weight'
p244
I1
ssg30
S'localhost'
p245
sg32
S'127.0.0.1'
p246
sg34
S'8803'
p247
sg36
S'xmHFndZe'
p248
sbag3
(g22
g5
NtRp249
(dp250
g25
S'5877add6f705d701ea303b6c0d41c03d'
p251
sg27
(dp252
g244
I1
ssg30
S'localhost'
p253
sg32
g246
sg34
S'8805'
p254
sg36
S'WIXYfGxr'
p255
sbag3
(g22
g5
NtRp256
(dp257
g25
S'b483f4d626e5d4112a861115b6a1b45b'
p258
sg27
(dp259
g244
I1
ssg30
S'localhost'
p260
sg32
g246
sg34
S'8806'
p261
sg36
S'pSyFEenY'
p262
sbasbsg70
g3
(g82
g5
NtRp263
(dp264
g85
I2
sg121
I666
sg86
S'63a9f0ea7bb98050796b649e85481845'
p265
sg88
g3
(g9
g5
NtRp266
(dp267
g14
(lp268
sg20
(dp269
sbsg93
I0
sg94
S'root'
p270
sg96
(lp271
g3
(g22
g5
NtRp272
(dp273
g25
S'd41d8cd98f00b204e9800998ecf8427e'
p274
sg27
S''
sg30
S'localhost'
p275
sg32
S'127.0.0.1'
p276
sg34
I8805
sg36
S''
sbag3
(g22
g5
NtRp277
(dp278
g25
S'62c08d6a083a9c635beb3d4bda981d0e'
p279
sg27
(dp280
S'weight'
p281
I1
ssg30
S'localhost'
p282
sg32
S'127.0.0.1'
p283
sg34
S'8806'
p284
sg36
S'PjMPbkSE'
p285
sbag3
(g22
g5
NtRp286
(dp287
g25
S'af896786d5a7746c1f8a27a61e665fb5'
p288
sg27
(dp289
g281
I1
ssg30
S'localhost'
p290
sg32
g283
sg34
S'8802'
p291
sg36
S'btfgCJUU'
p292
sbasg122
g265
sg124
S''
sg126
g3
(g9
g5
NtRp293
(dp294
g12
S'720a75216fd1202a38a82bfd710bcdae'
p295
sg14
(lp296
g295
asg20
(dp297
g295
g3
(g82
g5
NtRp298
(dp299
g85
I1
sg121
I666
sg86
S'63a9f0ea7bb98050796b649e85481845;720a75216fd1202a38a82bfd710bcdae'
p300
sg88
g3
(g9
g5
NtRp301
(dp302
g12
S'a8e784946e045e1331075cb4f6eea231'
p303
sg14
(lp304
g303
asg20
(dp305
g303
g3
(cdirnode
dirnext
p306
g5
NtRp307
(dp308
S'_dirnext__max'
p309
S'fdc3bdefb79cec8eb8211d2499e04704'
p310
sS'_dirnext__name'
p311
S'HNOqezPg'
p312
sS'_dirnext__index'
p313
S'4414f6cb936aec07293bc52fcd3559ab'
p314
sS'_dirnext__length'
p315
I0
sS'_dirnext__address'
p316
(lp317
g3
(g22
g5
NtRp318
(dp319
g25
S'af896786d5a7746c1f8a27a61e665fb5'
p320
sg27
(dp321
S'weight'
p322
I2
ssg30
S'localhost'
p323
sg32
S'127.0.0.1'
p324
sg34
S'8802'
p325
sg36
S'btfgCJUU'
p326
sbag3
(g22
g5
NtRp327
(dp328
g25
S'df4bcbf1fa783e32c9444be4e581ca19'
p329
sg27
(dp330
g322
I2
ssg30
S'localhost'
p331
sg32
g324
sg34
S'8803'
p332
sg36
S'vUDkslVb'
p333
sbag3
(g22
g5
NtRp334
(dp335
g25
S'e568dce6ea7707a817d71a2cdd9ebbde'
p336
sg27
(dp337
g322
I2
ssg30
S'localhost'
p338
sg32
g324
sg34
S'8804'
p339
sg36
S'wkYgcpVK'
p340
sbasS'_dirnext__min'
p341
g310
sbssg66
g303
sbsg93
I0
sg94
S'dirtest'
p342
sg96
(lp343
g3
(g22
g5
NtRp344
(dp345
g25
S'd41d8cd98f00b204e9800998ecf8427e'
p346
sg27
S''
sg30
S'localhost'
p347
sg32
S'127.0.0.1'
p348
sg34
I8805
sg36
S''
sbag3
(g22
g5
NtRp349
(dp350
g25
S'62c08d6a083a9c635beb3d4bda981d0e'
p351
sg27
(dp352
g322
I2
ssg30
S'localhost'
p353
sg32
g324
sg34
S'8806'
p354
sg36
S'PjMPbkSE'
p355
sbag318
asg122
S'720a75216fd1202a38a82bfd710bcdae'
p356
sg124
S'/root'
p357
sg126
g3
(g9
g5
NtRp358
(dp359
g12
S'106a6c241b8797f52e1e77317b96a201'
p360
sg14
(lp361
g360
asg20
(dp362
g360
g3
(g82
g5
NtRp363
(dp364
g85
I1
sg121
I666
sg86
S'63a9f0ea7bb98050796b649e85481845;720a75216fd1202a38a82bfd710bcdae;106a6c241b8797f52e1e77317b96a201'
p365
sg88
g3
(g9
g5
NtRp366
(dp367
g12
S'c983d071bd4bda32ff24c2234d4fc9a4'
p368
sg14
(lp369
g368
asg20
(dp370
g368
g3
(g306
g5
NtRp371
(dp372
g309
S'c983d071bd4bda32ff24c2234d4fc9a4'
p373
sg311
S'prdOokMF'
p374
sg313
S'266e12579d9ddfce699b431b0ad401c4'
p375
sg315
I0
sg316
(lp376
g327
ag334
ag349
asg341
g373
sbssg66
g368
sbsg93
I0
sg94
S'home'
p377
sg96
(lp378
g344
ag349
ag318
asg122
S'106a6c241b8797f52e1e77317b96a201'
p379
sg124
S'/root/dirtest'
p380
sg126
g3
(g9
g5
NtRp381
(dp382
g12
S'0f064e34f4c1703f93825f7dc4a61865'
p383
sg14
(lp384
g383
asg20
(dp385
g383
g3
(g82
g5
NtRp386
(dp387
g85
I1
sg121
I666
sg86
S'63a9f0ea7bb98050796b649e85481845;720a75216fd1202a38a82bfd710bcdae;106a6c241b8797f52e1e77317b96a201;0f064e34f4c1703f93825f7dc4a61865'
p388
sg88
g3
(g9
g5
NtRp389
(dp390
g14
(lp391
sg20
(dp392
sbsg93
I0
sg94
S'nami'
p393
sg96
(lp394
g344
ag349
ag318
asg122
S'0f064e34f4c1703f93825f7dc4a61865'
p395
sg124
S'/root/dirtest/home'
p396
sg126
g3
(g9
g5
NtRp397
(dp398
g14
(lp399
sg20
(dp400
sbsbssg66
g383
sbsbssg66
g360
sbsbssg66
g295
sbsbssg66
g72
sbs.